; Function Attrs: mustprogress uwtable
define hidden noundef zeroext i1 @_ZN4cvc58internal6theory24InferenceManagerBuffered20lemmaTheoryInferenceEPNS1_15TheoryInferenceE(ptr noundef nonnull align 8 dereferenceable(337) %0, ptr noundef %1) local_unnamed_addr #3 align 2 personality ptr @__gxx_personality_v0 {
  %3 = alloca i32, align 4
  %4 = alloca %"class.cvc5::internal::TrustNode", align 8
  call void @llvm.lifetime.start.p0(i64 4, ptr nonnull %3) #18
  store i32 0, ptr %3, align 4, !tbaa !112
  call void @llvm.lifetime.start.p0(i64 24, ptr nonnull %4) #18
  %5 = load ptr, ptr %1, align 8, !tbaa !3
  %6 = getelementptr inbounds nuw i8, ptr %5, i64 16
  %7 = load ptr, ptr %6, align 8
  call void %7(ptr dead_on_unwind nonnull writable sret(%"class.cvc5::internal::TrustNode") align 8 %4, ptr noundef nonnull align 8 dereferenceable(12) %1, ptr noundef nonnull align 4 dereferenceable(4) %3)
  %8 = getelementptr inbounds nuw i8, ptr %1, i64 8
  %9 = load i32, ptr %8, align 8, !tbaa !102
  %10 = load i32, ptr %3, align 4, !tbaa !112
  %11 = invoke noundef zeroext i1 @_ZN4cvc58internal6theory22TheoryInferenceManager12trustedLemmaERKNS0_9TrustNodeENS1_11InferenceIdENS1_13LemmaPropertyE(ptr noundef nonnull align 8 dereferenceable(240) %0, ptr noundef nonnull align 8 dereferenceable(24) %4, i32 noundef %9, i32 noundef %10)
          to label %12 unwind label %27

12:                                               ; preds = %2
  %13 = getelementptr inbounds nuw i8, ptr %4, i64 8
  %14 = load ptr, ptr %13, align 8, !tbaa !64
  %15 = load i64, ptr %14, align 8
  %16 = and i64 %15, 1152920405095219200
  %.not.i.i.i = icmp eq i64 %16, 1152920405095219200
  br i1 %.not.i.i.i, label %_ZN4cvc58internal9TrustNodeD2Ev.exit, label %17, !prof !69

17:                                               ; preds = %12
  %18 = add i64 %15, 1152920405095219200
  %19 = and i64 %18, 1152920405095219200
  %20 = and i64 %15, -1152920405095219201
  %21 = or disjoint i64 %19, %20
  store i64 %21, ptr %14, align 8
  %22 = icmp eq i64 %19, 0
  br i1 %22, label %23, label %_ZN4cvc58internal9TrustNodeD2Ev.exit, !prof !69

23:                                               ; preds = %17
  invoke void @_ZN4cvc58internal4expr9NodeValue15markForDeletionEv(ptr noundef nonnull align 8 dereferenceable(24) %14)
          to label %_ZN4cvc58internal9TrustNodeD2Ev.exit unwind label %24

24:                                               ; preds = %23
  %25 = landingpad { ptr, i32 }
          catch ptr null
  %26 = extractvalue { ptr, i32 } %25, 0
  call void @__clang_call_terminate(ptr %26) #19
  unreachable

_ZN4cvc58internal9TrustNodeD2Ev.exit:             ; preds = %12, %17, %23
  call void @llvm.lifetime.end.p0(i64 24, ptr nonnull %4) #18
  call void @llvm.lifetime.end.p0(i64 4, ptr nonnull %3) #18
  ret i1 %11

27:                                               ; preds = %2
  %28 = landingpad { ptr, i32 }
          cleanup
  call void @_ZN4cvc58internal9TrustNodeD2Ev(ptr noundef nonnull align 8 dereferenceable(24) %4) #18
  call void @llvm.lifetime.end.p0(i64 24, ptr nonnull %4) #18
  call void @llvm.lifetime.end.p0(i64 4, ptr nonnull %3) #18
  resume { ptr, i32 } %28
}